target datalayout = "e-m:e-p270:32:32-p271:32:32-p272:64:64-i64:64-i128:128-f80:128-n8:16:32:64-S128"
target triple = "x86_64-pc-linux-gnu"

@hf_ndps_address = internal global i32 0, align 4
@hf_address_len = internal global i32 0, align 4
@hf_ndps_net = internal global i32 0, align 4
@hf_ndps_node = internal global i32 0, align 4
@hf_ndps_socket = internal global i32 0, align 4
@hf_ndps_port = internal global i32 0, align 4
@hf_ndps_ip = internal global i32 0, align 4

; Function Attrs: nounwind uwtable
define internal i32 @print_address(ptr noundef %0, ptr noundef %1, i32 noundef %2) #0 {
  %4 = alloca ptr, align 8
  %5 = alloca ptr, align 8
  %6 = alloca i32, align 4
  %7 = alloca i32, align 4
  %8 = alloca i32, align 4
  store ptr %0, ptr %4, align 8
  store ptr %1, ptr %5, align 8
  store i32 %2, ptr %6, align 4
  store i32 0, ptr %7, align 4
  store i32 0, ptr %8, align 4
  %9 = load ptr, ptr %4, align 8
  %10 = load i32, ptr %6, align 4
  %11 = call i32 @tvb_get_ntohl(ptr noundef %9, i32 noundef %10)
  store i32 %11, ptr %7, align 4
  %12 = load ptr, ptr %5, align 8
  %13 = load i32, ptr @hf_ndps_address, align 4
  %14 = load ptr, ptr %4, align 8
  %15 = load i32, ptr %6, align 4
  %16 = load i32, ptr %7, align 4
  %17 = call ptr @proto_tree_add_uint(ptr noundef %12, i32 noundef %13, ptr noundef %14, i32 noundef %15, i32 noundef 4, i32 noundef %16)
  %18 = load i32, ptr %6, align 4
  %19 = add i32 %18, 4
  store i32 %19, ptr %6, align 4
  %20 = load ptr, ptr %4, align 8
  %21 = load i32, ptr %6, align 4
  %22 = call i32 @tvb_get_ntohl(ptr noundef %20, i32 noundef %21)
  store i32 %22, ptr %8, align 4
  %23 = load ptr, ptr %5, align 8
  %24 = load i32, ptr @hf_address_len, align 4
  %25 = load ptr, ptr %4, align 8
  %26 = load i32, ptr %6, align 4
  %27 = call ptr @proto_tree_add_item(ptr noundef %23, i32 noundef %24, ptr noundef %25, i32 noundef %26, i32 noundef 4, i32 noundef 0)
  %28 = load i32, ptr %6, align 4
  %29 = add i32 %28, 4
  store i32 %29, ptr %6, align 4
  %30 = load i32, ptr %7, align 4
  switch i32 %30, label %61 [
    i32 0, label %31
    i32 1, label %49
  ]

31:                                               ; preds = %3
  %32 = load ptr, ptr %5, align 8
  %33 = load i32, ptr @hf_ndps_net, align 4
  %34 = load ptr, ptr %4, align 8
  %35 = load i32, ptr %6, align 4
  %36 = call ptr @proto_tree_add_item(ptr noundef %32, i32 noundef %33, ptr noundef %34, i32 noundef %35, i32 noundef 4, i32 noundef 0)
  %37 = load ptr, ptr %5, align 8
  %38 = load i32, ptr @hf_ndps_node, align 4
  %39 = load ptr, ptr %4, align 8
  %40 = load i32, ptr %6, align 4
  %41 = add i32 %40, 4
  %42 = call ptr @proto_tree_add_item(ptr noundef %37, i32 noundef %38, ptr noundef %39, i32 noundef %41, i32 noundef 6, i32 noundef 0)
  %43 = load ptr, ptr %5, align 8
  %44 = load i32, ptr @hf_ndps_socket, align 4
  %45 = load ptr, ptr %4, align 8
  %46 = load i32, ptr %6, align 4
  %47 = add i32 %46, 10
  %48 = call ptr @proto_tree_add_item(ptr noundef %43, i32 noundef %44, ptr noundef %45, i32 noundef %47, i32 noundef 2, i32 noundef 0)
  br label %62

49:                                               ; preds = %3
  %50 = load ptr, ptr %5, align 8
  %51 = load i32, ptr @hf_ndps_port, align 4
  %52 = load ptr, ptr %4, align 8
  %53 = load i32, ptr %6, align 4
  %54 = call ptr @proto_tree_add_item(ptr noundef %50, i32 noundef %51, ptr noundef %52, i32 noundef %53, i32 noundef 2, i32 noundef 0)
  %55 = load ptr, ptr %5, align 8
  %56 = load i32, ptr @hf_ndps_ip, align 4
  %57 = load ptr, ptr %4, align 8
  %58 = load i32, ptr %6, align 4
  %59 = add i32 %58, 2
  %60 = call ptr @proto_tree_add_item(ptr noundef %55, i32 noundef %56, ptr noundef %57, i32 noundef %59, i32 noundef 4, i32 noundef 0)
  br label %62

61:                                               ; preds = %3
  br label %62

62:                                               ; preds = %61, %49, %31
  %63 = load ptr, ptr %4, align 8
  %64 = load i32, ptr %6, align 4
  %65 = load i32, ptr %8, align 4
  call void @tvb_ensure_bytes_exist(ptr noundef %63, i32 noundef %64, i32 noundef %65)
  %66 = load i32, ptr %8, align 4
  %67 = load i32, ptr %6, align 4
  %68 = add i32 %67, %66
  store i32 %68, ptr %6, align 4
  %69 = load i32, ptr %6, align 4
  %70 = load i32, ptr %8, align 4
  %71 = urem i32 %70, 4
  %72 = add i32 %69, %71
  ret i32 %72
}