; Function Attrs: nounwind uwtable
define internal fastcc i32 @print_address(ptr noundef %0, ptr noundef %1, i32 noundef %2) unnamed_addr #0 {
  %4 = tail call i32 @tvb_get_ntohl(ptr noundef %0, i32 noundef %2) #6
  %5 = load i32, ptr @hf_ndps_address, align 4
  %6 = tail call ptr @proto_tree_add_uint(ptr noundef %1, i32 noundef %5, ptr noundef %0, i32 noundef %2, i32 noundef 4, i32 noundef %4) #6
  %7 = add i32 %2, 4
  %8 = tail call i32 @tvb_get_ntohl(ptr noundef %0, i32 noundef %7) #6
  %9 = load i32, ptr @hf_address_len, align 4
  %10 = tail call ptr @proto_tree_add_item(ptr noundef %1, i32 noundef %9, ptr noundef %0, i32 noundef %7, i32 noundef 4, i32 noundef 0) #6
  %11 = add i32 %2, 8
  switch i32 %4, label %24 [
    i32 0, label %12
    i32 1, label %18
  ]

12:                                               ; preds = %3
  %13 = load i32, ptr @hf_ndps_net, align 4
  %14 = tail call ptr @proto_tree_add_item(ptr noundef %1, i32 noundef %13, ptr noundef %0, i32 noundef %11, i32 noundef 4, i32 noundef 0) #6
  %15 = load i32, ptr @hf_ndps_node, align 4
  %16 = add i32 %2, 12
  %17 = tail call ptr @proto_tree_add_item(ptr noundef %1, i32 noundef %15, ptr noundef %0, i32 noundef %16, i32 noundef 6, i32 noundef 0) #6
  br label %.sink.split

18:                                               ; preds = %3
  %19 = load i32, ptr @hf_ndps_port, align 4
  %20 = tail call ptr @proto_tree_add_item(ptr noundef %1, i32 noundef %19, ptr noundef %0, i32 noundef %11, i32 noundef 2, i32 noundef 0) #6
  br label %.sink.split

.sink.split:                                      ; preds = %12, %18
  %hf_ndps_ip.sink = phi ptr [ @hf_ndps_ip, %18 ], [ @hf_ndps_socket, %12 ]
  %.sink37 = phi i32 [ 10, %18 ], [ 18, %12 ]
  %.sink36 = phi i32 [ 4, %18 ], [ 2, %12 ]
  %21 = load i32, ptr %hf_ndps_ip.sink, align 4
  %22 = add i32 %2, %.sink37
  %23 = tail call ptr @proto_tree_add_item(ptr noundef %1, i32 noundef %21, ptr noundef %0, i32 noundef %22, i32 noundef %.sink36, i32 noundef 0) #6
  br label %24

24:                                               ; preds = %.sink.split, %3
  tail call void @tvb_ensure_bytes_exist(ptr noundef %0, i32 noundef %11, i32 noundef %8) #6
  %25 = add i32 %8, %11
  %26 = and i32 %8, 3
  %27 = add i32 %25, %26
  ret i32 %27
}